; Function Attrs: mustprogress uwtable
define void @_ZN7xgboost10collective4InitERKNS_4JsonE(ptr noundef nonnull readonly align 8 captures(none) dereferenceable(8) %0) local_unnamed_addr #3 personality ptr @__gxx_personality_v0 {
  %2 = alloca %"class.xgboost::Json", align 8
  %3 = load ptr, ptr %0, align 8, !tbaa !69
  store ptr %3, ptr %2, align 8, !tbaa !69
  %.not.i.i.i = icmp eq ptr %3, null
  br i1 %.not.i.i.i, label %_ZN7xgboost4JsonC2ERKS0_.exit, label %4

4:                                                ; preds = %1
  %5 = getelementptr inbounds nuw i8, ptr %3, i64 8
  %6 = atomicrmw add ptr %5, i32 1 monotonic, align 4
  br label %_ZN7xgboost4JsonC2ERKS0_.exit

_ZN7xgboost4JsonC2ERKS0_.exit:                    ; preds = %1, %4
  invoke void @_ZN7xgboost10collective19GlobalCommGroupInitENS_4JsonE(ptr noundef nonnull %2)
          to label %7 unwind label %17

7:                                                ; preds = %_ZN7xgboost4JsonC2ERKS0_.exit
  %8 = load ptr, ptr %2, align 8, !tbaa !69
  %.not.i.i.i2 = icmp eq ptr %8, null
  br i1 %.not.i.i.i2, label %_ZN7xgboost4JsonD2Ev.exit, label %9

9:                                                ; preds = %7
  %10 = getelementptr inbounds nuw i8, ptr %8, i64 8
  %11 = atomicrmw sub ptr %10, i32 1 release, align 4
  %12 = icmp eq i32 %11, 1
  br i1 %12, label %13, label %_ZN7xgboost4JsonD2Ev.exit

13:                                               ; preds = %9
  fence acquire
  %14 = load ptr, ptr %8, align 8, !tbaa !11
  %15 = getelementptr inbounds nuw i8, ptr %14, i64 8
  %16 = load ptr, ptr %15, align 8
  tail call void %16(ptr noundef nonnull align 8 dereferenceable(24) %8) #13
  br label %_ZN7xgboost4JsonD2Ev.exit

_ZN7xgboost4JsonD2Ev.exit:                        ; preds = %7, %9, %13
  ret void

17:                                               ; preds = %_ZN7xgboost4JsonC2ERKS0_.exit
  %18 = landingpad { ptr, i32 }
          cleanup
  %19 = load ptr, ptr %2, align 8, !tbaa !69
  %.not.i.i.i3 = icmp eq ptr %19, null
  br i1 %.not.i.i.i3, label %_ZN7xgboost4JsonD2Ev.exit4, label %20

20:                                               ; preds = %17
  %21 = getelementptr inbounds nuw i8, ptr %19, i64 8
  %22 = atomicrmw sub ptr %21, i32 1 release, align 4
  %23 = icmp eq i32 %22, 1
  br i1 %23, label %24, label %_ZN7xgboost4JsonD2Ev.exit4

24:                                               ; preds = %20
  fence acquire
  %25 = load ptr, ptr %19, align 8, !tbaa !11
  %26 = getelementptr inbounds nuw i8, ptr %25, i64 8
  %27 = load ptr, ptr %26, align 8
  tail call void %27(ptr noundef nonnull align 8 dereferenceable(24) %19) #13
  br label %_ZN7xgboost4JsonD2Ev.exit4

_ZN7xgboost4JsonD2Ev.exit4:                       ; preds = %17, %20, %24
  resume { ptr, i32 } %18
}